; Function Attrs: nounwind uwtable
define void @Mio_SopPushSCC(ptr noundef captures(none) %0, i32 noundef %1) local_unnamed_addr #0 {
  %3 = getelementptr i8, ptr %0, i64 4
  %.val22 = load i32, ptr %3, align 4, !tbaa !3
  %4 = icmp sgt i32 %.val22, 0
  br i1 %4, label %.lr.ph, label %.critedge.thread

.lr.ph:                                           ; preds = %2
  %5 = getelementptr i8, ptr %0, i64 8
  %.val17 = load ptr, ptr %5, align 8, !tbaa !10
  br label %6

6:                                                ; preds = %.lr.ph, %15
  %.val26 = phi i32 [ %.val22, %.lr.ph ], [ %.val, %15 ]
  %indvars.iv = phi i64 [ 0, %.lr.ph ], [ %indvars.iv.next, %15 ]
  %.024 = phi i32 [ 0, %.lr.ph ], [ %.1, %15 ]
  %7 = getelementptr inbounds nuw i32, ptr %.val17, i64 %indvars.iv
  %8 = load i32, ptr %7, align 4, !tbaa !11
  %9 = or i32 %8, %1
  %.not = icmp eq i32 %9, %1
  br i1 %.not, label %.loopexit, label %10

10:                                               ; preds = %6
  %.not19 = icmp eq i32 %9, %8
  br i1 %.not19, label %15, label %11

11:                                               ; preds = %10
  %12 = add nsw i32 %.024, 1
  %13 = sext i32 %.024 to i64
  %14 = getelementptr inbounds i32, ptr %.val17, i64 %13
  store i32 %8, ptr %14, align 4, !tbaa !11
  %.val.pre = load i32, ptr %3, align 4, !tbaa !3
  br label %15

15:                                               ; preds = %10, %11
  %.val = phi i32 [ %.val26, %10 ], [ %.val.pre, %11 ]
  %.1 = phi i32 [ %.024, %10 ], [ %12, %11 ]
  %indvars.iv.next = add nuw nsw i64 %indvars.iv, 1
  %16 = sext i32 %.val to i64
  %17 = icmp slt i64 %indvars.iv.next, %16
  br i1 %17, label %6, label %.critedge, !llvm.loop !12

.critedge:                                        ; preds = %15
  store i32 %.1, ptr %3, align 4, !tbaa !3
  %18 = load i32, ptr %0, align 8, !tbaa !14
  %19 = icmp eq i32 %.1, %18
  br i1 %19, label %22, label %.Vec_IntGrow.exit10_crit_edge.i

.critedge.thread:                                 ; preds = %2
  store i32 0, ptr %3, align 4, !tbaa !3
  %20 = load i32, ptr %0, align 8, !tbaa !14
  %21 = icmp eq i32 %20, 0
  br i1 %21, label %.thread, label %.Vec_IntGrow.exit10_crit_edge.i

.Vec_IntGrow.exit10_crit_edge.i:                  ; preds = %.critedge.thread, %.critedge
  %.phi.trans.insert.i = getelementptr inbounds nuw i8, ptr %0, i64 8
  %.pre.i = load ptr, ptr %.phi.trans.insert.i, align 8, !tbaa !10
  br label %Vec_IntPush.exit

22:                                               ; preds = %.critedge
  %23 = icmp slt i32 %.1, 16
  br i1 %23, label %.thread, label %31

.thread:                                          ; preds = %.critedge.thread, %22
  %24 = getelementptr inbounds nuw i8, ptr %0, i64 8
  %25 = load ptr, ptr %24, align 8, !tbaa !10
  %.not9.i.i = icmp eq ptr %25, null
  br i1 %.not9.i.i, label %28, label %26

26:                                               ; preds = %.thread
  %27 = tail call dereferenceable_or_null(64) ptr @realloc(ptr noundef nonnull %25, i64 noundef 64) #5
  br label %Vec_IntGrow.exit.i

28:                                               ; preds = %.thread
  %29 = tail call noalias dereferenceable_or_null(64) ptr @malloc(i64 noundef 64) #6
  br label %Vec_IntGrow.exit.i

Vec_IntGrow.exit.i:                               ; preds = %28, %26
  %30 = phi ptr [ %27, %26 ], [ %29, %28 ]
  store ptr %30, ptr %24, align 8, !tbaa !10
  store i32 16, ptr %0, align 8, !tbaa !14
  br label %Vec_IntPush.exit

31:                                               ; preds = %22
  %32 = shl nuw nsw i32 %.1, 1
  %33 = getelementptr inbounds nuw i8, ptr %0, i64 8
  %34 = load ptr, ptr %33, align 8, !tbaa !10
  %.not9.i9.i = icmp eq ptr %34, null
  %35 = zext nneg i32 %32 to i64
  %36 = shl nuw nsw i64 %35, 2
  br i1 %.not9.i9.i, label %39, label %37

37:                                               ; preds = %31
  %38 = tail call ptr @realloc(ptr noundef nonnull %34, i64 noundef %36) #5
  br label %41

39:                                               ; preds = %31
  %40 = tail call noalias ptr @malloc(i64 noundef %36) #6
  br label %41

41:                                               ; preds = %39, %37
  %42 = phi ptr [ %38, %37 ], [ %40, %39 ]
  store ptr %42, ptr %33, align 8, !tbaa !10
  store i32 %32, ptr %0, align 8, !tbaa !14
  br label %Vec_IntPush.exit

Vec_IntPush.exit:                                 ; preds = %.Vec_IntGrow.exit10_crit_edge.i, %Vec_IntGrow.exit.i, %41
  %43 = phi ptr [ %.pre.i, %.Vec_IntGrow.exit10_crit_edge.i ], [ %42, %41 ], [ %30, %Vec_IntGrow.exit.i ]
  %44 = load i32, ptr %3, align 4, !tbaa !3
  %45 = add nsw i32 %44, 1
  store i32 %45, ptr %3, align 4, !tbaa !3
  %46 = sext i32 %44 to i64
  %47 = getelementptr inbounds i32, ptr %43, i64 %46
  store i32 %1, ptr %47, align 4, !tbaa !11
  br label %.loopexit

.loopexit:                                        ; preds = %6, %Vec_IntPush.exit
  ret void
}